target datalayout = "e-m:e-p270:32:32-p271:32:32-p272:64:64-i64:64-i128:128-f80:128-n8:16:32:64-S128"
target triple = "x86_64-pc-linux-gnu"

%struct.H5P_libclass_t = type { ptr, i32, ptr, ptr, ptr, ptr, ptr, ptr, ptr, ptr, ptr, ptr, ptr }
%struct.H5VL_loc_params_t = type { i32, i32, %union.anon }
%union.anon = type { %struct.H5VL_loc_by_idx }
%struct.H5VL_loc_by_idx = type { ptr, i32, i32, i64, i64 }
%struct.H5VL_loc_by_name = type { ptr, i64 }
%struct.H5VL_optional_args_t = type { i32, ptr }
%union.H5VL_native_object_optional_args_t = type { %struct.H5VL_native_object_get_comment_t }
%struct.H5VL_native_object_get_comment_t = type { i64, ptr, ptr }
%struct.anon.14 = type { ptr }

@H5_libinit_g = external global i8, align 1
@H5_libterm_g = external global i8, align 1
@.str = private unnamed_addr constant [97 x i8] c"generated/home/dtcxzyw/WorkSpace/Projects/compilers/llvm-opt-benchmark/bench/hdf5/hdf5/src/H5O.c\00", align 1
@H5E_FUNC_g = external global i64, align 8
@H5E_CANTINIT_g = external global i64, align 8
@.str.1 = private unnamed_addr constant [30 x i8] c"library initialization failed\00", align 1
@H5E_CANTSET_g = external global i64, align 8
@.str.2 = private unnamed_addr constant [22 x i8] c"can't set API context\00", align 1
@H5E_OHDR_g = external global i64, align 8
@H5E_ARGS_g = external global i64, align 8
@H5E_BADVALUE_g = external global i64, align 8
@H5E_BADTYPE_g = external global i64, align 8
@.str.21 = private unnamed_addr constant [28 x i8] c"invalid location identifier\00", align 1
@H5P_LST_DATASET_XFER_ID_g = external global i64, align 8
@H5P_CLS_LACC = external constant [1 x %struct.H5P_libclass_t], align 16
@.str.44 = private unnamed_addr constant [36 x i8] c"can't set access property list info\00", align 1
@__func__.H5Oset_comment_by_name = private unnamed_addr constant [23 x i8] c"H5Oset_comment_by_name\00", align 1
@.str.67 = private unnamed_addr constant [8 x i8] c"no name\00", align 1
@.str.68 = private unnamed_addr constant [35 x i8] c"can't set comment for object: '%s'\00", align 1

; Function Attrs: nounwind uwtable
define i32 @H5Oset_comment_by_name(i64 noundef %0, ptr noundef %1, ptr noundef %2, i64 noundef %3) #0 {
  %5 = alloca i64, align 8
  %6 = alloca ptr, align 8
  %7 = alloca ptr, align 8
  %8 = alloca i64, align 8
  %9 = alloca ptr, align 8
  %10 = alloca %struct.H5VL_optional_args_t, align 8
  %11 = alloca %union.H5VL_native_object_optional_args_t, align 8
  %12 = alloca %struct.H5VL_loc_params_t, align 8
  %13 = alloca i32, align 4
  %14 = alloca i8, align 1
  %15 = alloca i8, align 1
  store i64 %0, ptr %5, align 8
  store ptr %1, ptr %6, align 8
  store ptr %2, ptr %7, align 8
  store i64 %3, ptr %8, align 8
  store i32 0, ptr %13, align 4
  store i8 0, ptr %14, align 1
  store i8 0, ptr %15, align 1
  %16 = load i8, ptr @H5_libinit_g, align 1
  %17 = trunc i8 %16 to i1
  br i1 %17, label %22, label %18

18:                                               ; preds = %4
  %19 = load i8, ptr @H5_libterm_g, align 1
  %20 = trunc i8 %19 to i1
  %21 = xor i1 %20, true
  br label %22

22:                                               ; preds = %18, %4
  %23 = phi i1 [ false, %4 ], [ %21, %18 ]
  %24 = xor i1 %23, true
  %25 = xor i1 %24, true
  %26 = zext i1 %25 to i32
  %27 = sext i32 %26 to i64
  %28 = icmp ne i64 %27, 0
  br i1 %28, label %29, label %53

29:                                               ; preds = %22
  %30 = call i32 @H5_init_library()
  %31 = icmp slt i32 %30, 0
  %32 = xor i1 %31, true
  %33 = xor i1 %32, true
  %34 = zext i1 %33 to i32
  %35 = sext i32 %34 to i64
  %36 = icmp ne i64 %35, 0
  br i1 %36, label %37, label %52

37:                                               ; preds = %29
  br label %38

38:                                               ; preds = %37
  br label %39

39:                                               ; preds = %38
  br label %40

40:                                               ; preds = %39
  %41 = load i64, ptr @H5E_FUNC_g, align 8
  %42 = load i64, ptr @H5E_CANTINIT_g, align 8
  %43 = call i32 (ptr, ptr, i32, i64, i64, ptr, ...) @H5E_printf_stack(ptr noundef @.str, ptr noundef @__func__.H5Oset_comment_by_name, i32 noundef 1519, i64 noundef %41, i64 noundef %42, ptr noundef @.str.1)
  br label %44

44:                                               ; preds = %40
  store i8 1, ptr %15, align 1
  %45 = load i8, ptr %15, align 1
  %46 = trunc i8 %45 to i1
  %47 = zext i1 %46 to i8
  store i8 %47, ptr %15, align 1
  br label %48

48:                                               ; preds = %44
  br label %49

49:                                               ; preds = %48
  store i32 -1, ptr %13, align 4
  br label %174

50:                                               ; No predecessors!
  br label %51

51:                                               ; preds = %50
  br label %52

52:                                               ; preds = %51, %29
  br label %53

53:                                               ; preds = %52, %22
  %54 = call i32 @H5CX_push()
  %55 = icmp slt i32 %54, 0
  %56 = xor i1 %55, true
  %57 = xor i1 %56, true
  %58 = zext i1 %57 to i32
  %59 = sext i32 %58 to i64
  %60 = icmp ne i64 %59, 0
  br i1 %60, label %61, label %76

61:                                               ; preds = %53
  br label %62

62:                                               ; preds = %61
  br label %63

63:                                               ; preds = %62
  br label %64

64:                                               ; preds = %63
  %65 = load i64, ptr @H5E_FUNC_g, align 8
  %66 = load i64, ptr @H5E_CANTSET_g, align 8
  %67 = call i32 (ptr, ptr, i32, i64, i64, ptr, ...) @H5E_printf_stack(ptr noundef @.str, ptr noundef @__func__.H5Oset_comment_by_name, i32 noundef 1519, i64 noundef %65, i64 noundef %66, ptr noundef @.str.2)
  br label %68

68:                                               ; preds = %64
  store i8 1, ptr %15, align 1
  %69 = load i8, ptr %15, align 1
  %70 = trunc i8 %69 to i1
  %71 = zext i1 %70 to i8
  store i8 %71, ptr %15, align 1
  br label %72

72:                                               ; preds = %68
  br label %73

73:                                               ; preds = %72
  store i32 -1, ptr %13, align 4
  br label %174

74:                                               ; No predecessors!
  br label %75

75:                                               ; preds = %74
  br label %77

76:                                               ; preds = %53
  store i8 1, ptr %14, align 1
  br label %77

77:                                               ; preds = %76, %75
  %78 = call i32 @H5E_clear_stack()
  %79 = load ptr, ptr %6, align 8
  %80 = icmp ne ptr %79, null
  br i1 %80, label %81, label %85

81:                                               ; preds = %77
  %82 = load ptr, ptr %6, align 8
  %83 = load i8, ptr %82, align 1
  %84 = icmp ne i8 %83, 0
  br i1 %84, label %100, label %85

85:                                               ; preds = %81, %77
  br label %86

86:                                               ; preds = %85
  br label %87

87:                                               ; preds = %86
  br label %88

88:                                               ; preds = %87
  %89 = load i64, ptr @H5E_ARGS_g, align 8
  %90 = load i64, ptr @H5E_BADVALUE_g, align 8
  %91 = call i32 (ptr, ptr, i32, i64, i64, ptr, ...) @H5E_printf_stack(ptr noundef @.str, ptr noundef @__func__.H5Oset_comment_by_name, i32 noundef 1523, i64 noundef %89, i64 noundef %90, ptr noundef @.str.67)
  br label %92

92:                                               ; preds = %88
  store i8 1, ptr %15, align 1
  %93 = load i8, ptr %15, align 1
  %94 = trunc i8 %93 to i1
  %95 = zext i1 %94 to i8
  store i8 %95, ptr %15, align 1
  br label %96

96:                                               ; preds = %92
  br label %97

97:                                               ; preds = %96
  store i32 -1, ptr %13, align 4
  br label %174

98:                                               ; No predecessors!
  br label %99

99:                                               ; preds = %98
  br label %100

100:                                              ; preds = %99, %81
  %101 = load i64, ptr %5, align 8
  %102 = call i32 @H5CX_set_apl(ptr noundef %8, ptr noundef @H5P_CLS_LACC, i64 noundef %101, i1 noundef zeroext true)
  %103 = icmp slt i32 %102, 0
  br i1 %103, label %104, label %119

104:                                              ; preds = %100
  br label %105

105:                                              ; preds = %104
  br label %106

106:                                              ; preds = %105
  br label %107

107:                                              ; preds = %106
  %108 = load i64, ptr @H5E_OHDR_g, align 8
  %109 = load i64, ptr @H5E_CANTSET_g, align 8
  %110 = call i32 (ptr, ptr, i32, i64, i64, ptr, ...) @H5E_printf_stack(ptr noundef @.str, ptr noundef @__func__.H5Oset_comment_by_name, i32 noundef 1527, i64 noundef %108, i64 noundef %109, ptr noundef @.str.44)
  br label %111

111:                                              ; preds = %107
  store i8 1, ptr %15, align 1
  %112 = load i8, ptr %15, align 1
  %113 = trunc i8 %112 to i1
  %114 = zext i1 %113 to i8
  store i8 %114, ptr %15, align 1
  br label %115

115:                                              ; preds = %111
  br label %116

116:                                              ; preds = %115
  store i32 -1, ptr %13, align 4
  br label %174

117:                                              ; No predecessors!
  br label %118

118:                                              ; preds = %117
  br label %119

119:                                              ; preds = %118, %100
  %120 = getelementptr inbounds %struct.H5VL_loc_params_t, ptr %12, i32 0, i32 1
  store i32 1, ptr %120, align 4
  %121 = load ptr, ptr %6, align 8
  %122 = getelementptr inbounds %struct.H5VL_loc_params_t, ptr %12, i32 0, i32 2
  %123 = getelementptr inbounds %struct.H5VL_loc_by_name, ptr %122, i32 0, i32 0
  store ptr %121, ptr %123, align 8
  %124 = load i64, ptr %8, align 8
  %125 = getelementptr inbounds %struct.H5VL_loc_params_t, ptr %12, i32 0, i32 2
  %126 = getelementptr inbounds %struct.H5VL_loc_by_name, ptr %125, i32 0, i32 1
  store i64 %124, ptr %126, align 8
  %127 = load i64, ptr %5, align 8
  %128 = call i32 @H5I_get_type(i64 noundef %127)
  %129 = getelementptr inbounds %struct.H5VL_loc_params_t, ptr %12, i32 0, i32 0
  store i32 %128, ptr %129, align 8
  %130 = load i64, ptr %5, align 8
  %131 = call ptr @H5VL_vol_object(i64 noundef %130)
  store ptr %131, ptr %9, align 8
  %132 = icmp eq ptr null, %131
  br i1 %132, label %133, label %148

133:                                              ; preds = %119
  br label %134

134:                                              ; preds = %133
  br label %135

135:                                              ; preds = %134
  br label %136

136:                                              ; preds = %135
  %137 = load i64, ptr @H5E_ARGS_g, align 8
  %138 = load i64, ptr @H5E_BADTYPE_g, align 8
  %139 = call i32 (ptr, ptr, i32, i64, i64, ptr, ...) @H5E_printf_stack(ptr noundef @.str, ptr noundef @__func__.H5Oset_comment_by_name, i32 noundef 1537, i64 noundef %137, i64 noundef %138, ptr noundef @.str.21)
  br label %140

140:                                              ; preds = %136
  store i8 1, ptr %15, align 1
  %141 = load i8, ptr %15, align 1
  %142 = trunc i8 %141 to i1
  %143 = zext i1 %142 to i8
  store i8 %143, ptr %15, align 1
  br label %144

144:                                              ; preds = %140
  br label %145

145:                                              ; preds = %144
  store i32 -1, ptr %13, align 4
  br label %174

146:                                              ; No predecessors!
  br label %147

147:                                              ; preds = %146
  br label %148

148:                                              ; preds = %147, %119
  %149 = load ptr, ptr %7, align 8
  %150 = getelementptr inbounds %struct.anon.14, ptr %11, i32 0, i32 0
  store ptr %149, ptr %150, align 8
  %151 = getelementptr inbounds %struct.H5VL_optional_args_t, ptr %10, i32 0, i32 0
  store i32 1, ptr %151, align 8
  %152 = getelementptr inbounds %struct.H5VL_optional_args_t, ptr %10, i32 0, i32 1
  store ptr %11, ptr %152, align 8
  %153 = load ptr, ptr %9, align 8
  %154 = load i64, ptr @H5P_LST_DATASET_XFER_ID_g, align 8
  %155 = call i32 @H5VL_object_optional(ptr noundef %153, ptr noundef %12, ptr noundef %10, i64 noundef %154, ptr noundef null)
  %156 = icmp slt i32 %155, 0
  br i1 %156, label %157, label %173

157:                                              ; preds = %148
  br label %158

158:                                              ; preds = %157
  br label %159

159:                                              ; preds = %158
  br label %160

160:                                              ; preds = %159
  %161 = load i64, ptr @H5E_OHDR_g, align 8
  %162 = load i64, ptr @H5E_CANTSET_g, align 8
  %163 = load ptr, ptr %6, align 8
  %164 = call i32 (ptr, ptr, i32, i64, i64, ptr, ...) @H5E_printf_stack(ptr noundef @.str, ptr noundef @__func__.H5Oset_comment_by_name, i32 noundef 1547, i64 noundef %161, i64 noundef %162, ptr noundef @.str.68, ptr noundef %163)
  br label %165

165:                                              ; preds = %160
  store i8 1, ptr %15, align 1
  %166 = load i8, ptr %15, align 1
  %167 = trunc i8 %166 to i1
  %168 = zext i1 %167 to i8
  store i8 %168, ptr %15, align 1
  br label %169

169:                                              ; preds = %165
  br label %170

170:                                              ; preds = %169
  store i32 -1, ptr %13, align 4
  br label %174

171:                                              ; No predecessors!
  br label %172

172:                                              ; preds = %171
  br label %173

173:                                              ; preds = %172, %148
  br label %174

174:                                              ; preds = %173, %170, %145, %116, %97, %73, %49
  %175 = load i8, ptr %14, align 1
  %176 = trunc i8 %175 to i1
  %177 = xor i1 %176, true
  %178 = xor i1 %177, true
  %179 = zext i1 %178 to i32
  %180 = sext i32 %179 to i64
  %181 = icmp ne i64 %180, 0
  br i1 %181, label %182, label %184

182:                                              ; preds = %174
  %183 = call i32 @H5CX_pop(i1 noundef zeroext true)
  store i8 0, ptr %14, align 1
  br label %184

184:                                              ; preds = %182, %174
  %185 = load i8, ptr %15, align 1
  %186 = trunc i8 %185 to i1
  %187 = xor i1 %186, true
  %188 = xor i1 %187, true
  %189 = zext i1 %188 to i32
  %190 = sext i32 %189 to i64
  %191 = icmp ne i64 %190, 0
  br i1 %191, label %192, label %194

192:                                              ; preds = %184
  %193 = call i32 @H5E_dump_api_stack()
  br label %194

194:                                              ; preds = %192, %184
  %195 = load i32, ptr %13, align 4
  ret i32 %195
}