; Function Attrs: nounwind uwtable
define range(i32 -1, 1) i32 @H5Oset_comment_by_name(i64 noundef %0, ptr noundef %1, ptr noundef %2, i64 noundef %3) local_unnamed_addr #0 {
  %5 = alloca i64, align 8
  %6 = alloca %struct.H5VL_optional_args_t, align 8
  %7 = alloca %union.H5VL_native_object_optional_args_t, align 8
  %8 = alloca %struct.H5VL_loc_params_t, align 8
  store i64 %3, ptr %5, align 8
  %9 = load i8, ptr @H5_libinit_g, align 1
  %10 = trunc i8 %9 to i1
  %11 = load i8, ptr @H5_libterm_g, align 1
  %12 = trunc i8 %11 to i1
  %13 = select i1 %10, i1 true, i1 %12
  br i1 %13, label %21, label %14

14:                                               ; preds = %4
  %15 = tail call i32 @H5_init_library() #4
  %16 = icmp slt i32 %15, 0
  br i1 %16, label %17, label %21

17:                                               ; preds = %14
  %18 = load i64, ptr @H5E_FUNC_g, align 8
  %19 = load i64, ptr @H5E_CANTINIT_g, align 8
  %20 = tail call i32 (ptr, ptr, i32, i64, i64, ptr, ...) @H5E_printf_stack(ptr noundef nonnull @.str, ptr noundef nonnull @__func__.H5Oset_comment_by_name, i32 noundef 1519, i64 noundef %18, i64 noundef %19, ptr noundef nonnull @.str.1) #4
  br label %.thread30

21:                                               ; preds = %14, %4
  %22 = tail call i32 @H5CX_push() #4
  %23 = icmp slt i32 %22, 0
  br i1 %23, label %24, label %28

24:                                               ; preds = %21
  %25 = load i64, ptr @H5E_FUNC_g, align 8
  %26 = load i64, ptr @H5E_CANTSET_g, align 8
  %27 = tail call i32 (ptr, ptr, i32, i64, i64, ptr, ...) @H5E_printf_stack(ptr noundef nonnull @.str, ptr noundef nonnull @__func__.H5Oset_comment_by_name, i32 noundef 1519, i64 noundef %25, i64 noundef %26, ptr noundef nonnull @.str.2) #4
  br label %.thread30

28:                                               ; preds = %21
  %29 = tail call i32 @H5E_clear_stack() #4
  %.not = icmp eq ptr %1, null
  br i1 %.not, label %32, label %30

30:                                               ; preds = %28
  %31 = load i8, ptr %1, align 1
  %.not21 = icmp eq i8 %31, 0
  br i1 %.not21, label %32, label %36

32:                                               ; preds = %28, %30
  %33 = load i64, ptr @H5E_ARGS_g, align 8
  %34 = load i64, ptr @H5E_BADVALUE_g, align 8
  %35 = tail call i32 (ptr, ptr, i32, i64, i64, ptr, ...) @H5E_printf_stack(ptr noundef nonnull @.str, ptr noundef nonnull @__func__.H5Oset_comment_by_name, i32 noundef 1523, i64 noundef %33, i64 noundef %34, ptr noundef nonnull @.str.67) #4
  br label %.thread36

36:                                               ; preds = %30
  %37 = call i32 @H5CX_set_apl(ptr noundef nonnull %5, ptr noundef nonnull @H5P_CLS_LACC, i64 noundef %0, i1 noundef zeroext true) #4
  %38 = icmp slt i32 %37, 0
  br i1 %38, label %39, label %43

39:                                               ; preds = %36
  %40 = load i64, ptr @H5E_OHDR_g, align 8
  %41 = load i64, ptr @H5E_CANTSET_g, align 8
  %42 = call i32 (ptr, ptr, i32, i64, i64, ptr, ...) @H5E_printf_stack(ptr noundef nonnull @.str, ptr noundef nonnull @__func__.H5Oset_comment_by_name, i32 noundef 1527, i64 noundef %40, i64 noundef %41, ptr noundef nonnull @.str.44) #4
  br label %.thread36

43:                                               ; preds = %36
  %44 = getelementptr inbounds i8, ptr %8, i64 4
  store i32 1, ptr %44, align 4
  %45 = getelementptr inbounds i8, ptr %8, i64 8
  store ptr %1, ptr %45, align 8
  %46 = load i64, ptr %5, align 8
  %47 = getelementptr inbounds i8, ptr %8, i64 16
  store i64 %46, ptr %47, align 8
  %48 = call i32 @H5I_get_type(i64 noundef %0) #4
  store i32 %48, ptr %8, align 8
  %49 = call ptr @H5VL_vol_object(i64 noundef %0) #4
  %50 = icmp eq ptr %49, null
  br i1 %50, label %51, label %55

51:                                               ; preds = %43
  %52 = load i64, ptr @H5E_ARGS_g, align 8
  %53 = load i64, ptr @H5E_BADTYPE_g, align 8
  %54 = call i32 (ptr, ptr, i32, i64, i64, ptr, ...) @H5E_printf_stack(ptr noundef nonnull @.str, ptr noundef nonnull @__func__.H5Oset_comment_by_name, i32 noundef 1537, i64 noundef %52, i64 noundef %53, ptr noundef nonnull @.str.21) #4
  br label %.thread36

55:                                               ; preds = %43
  store ptr %2, ptr %7, align 8
  store i32 1, ptr %6, align 8
  %56 = getelementptr inbounds i8, ptr %6, i64 8
  store ptr %7, ptr %56, align 8
  %57 = load i64, ptr @H5P_LST_DATASET_XFER_ID_g, align 8
  %58 = call i32 @H5VL_object_optional(ptr noundef nonnull %49, ptr noundef nonnull %8, ptr noundef nonnull %6, i64 noundef %57, ptr noundef null) #4
  %59 = icmp slt i32 %58, 0
  br i1 %59, label %60, label %65

60:                                               ; preds = %55
  %61 = load i64, ptr @H5E_OHDR_g, align 8
  %62 = load i64, ptr @H5E_CANTSET_g, align 8
  %63 = call i32 (ptr, ptr, i32, i64, i64, ptr, ...) @H5E_printf_stack(ptr noundef nonnull @.str, ptr noundef nonnull @__func__.H5Oset_comment_by_name, i32 noundef 1547, i64 noundef %61, i64 noundef %62, ptr noundef nonnull @.str.68, ptr noundef nonnull %1) #4
  br label %.thread36

.thread36:                                        ; preds = %32, %60, %51, %39
  %64 = call i32 @H5CX_pop(i1 noundef zeroext true) #4
  br label %.thread30

65:                                               ; preds = %55
  %66 = call i32 @H5CX_pop(i1 noundef zeroext true) #4
  br label %68

.thread30:                                        ; preds = %24, %17, %.thread36
  %67 = call i32 @H5E_dump_api_stack() #4
  br label %68

68:                                               ; preds = %65, %.thread30
  %.0182533 = phi i32 [ -1, %.thread30 ], [ 0, %65 ]
  ret i32 %.0182533
}